(lp1
(dp2
Vdomain
p3
V.quora.com
p4
sVname
p5
V_ga
p6
sVexpires
p7
V\u5468\u4e94, 01 2\u6708 2019 16:45:27 GMT
p8
sVvalue
p9
VGA1.2.716593728.1485967410
p10
sVexpiry
p11
I1549039527
sVpath
p12
V/
sVhttponly
p13
I00
sVsecure
p14
I00
sa(dp15
Vdomain
p16
V.quora.com
p17
sVname
p18
Vm-wf-loaded
p19
sVexpires
p20
V\u5468\u56db, 02 2\u6708 2017 16:45:27 GMT
p21
sVvalue
p22
Vq-icons-q_serif
p23
sVexpiry
p24
I1486053927
sVpath
p25
V/
sVhttponly
p26
I00
sVsecure
p27
I00
sa(dp28
Vdomain
p29
V.quora.com
p30
sVname
p31
Vm-tz
p32
sVexpires
p33
V\u5468\u4e00, 31 1\u6708 2022 16:45:25 GMT
p34
sVvalue
p35
V-480
p36
sVexpiry
p37
I1643647525
sVpath
p38
V/
sVhttponly
p39
I00
sVsecure
p40
I00
sa(dp41
Vdomain
p42
V.quora.com
p43
sVname
p44
Vm-early_v
p45
sVexpires
p46
V\u5468\u4e94, 09 11\u6708 2035 23:59:00 GMT
p47
sVvalue
p48
V83471c69fad5a4ed
p49
sVexpiry
p50
I2078265540
sVpath
p51
V/
sVhttponly
p52
I00
sVsecure
p53
I00
sa(dp54
Vdomain
p55
V.quora.com
p56
sVname
p57
Vm-login
p58
sVexpires
p59
V\u5468\u4e94, 09 11\u6708 2035 23:59:00 GMT
p60
sVvalue
p61
V1
sVexpiry
p62
I2078265540
sVpath
p63
V/
sVhttponly
p64
I00
sVsecure
p65
I00
sa(dp66
Vdomain
p67
V.quora.com
p68
sVname
p69
Vm-css_v
p70
sVexpires
p71
V\u5468\u56db, 01 2\u6708 2018 22:25:07 GMT
p72
sVvalue
p73
V406e2fa2b50355b7
p74
sVexpiry
p75
I1517523907
sVpath
p76
V/
sVhttponly
p77
I00
sVsecure
p78
I00
sa(dp79
Vdomain
p80
V.quora.com
p81
sVname
p82
Vm-s
p83
sVvalue
p84
V"e1RaKtoInIqddRrYRgBmOw\u005c075\u005c075"
p85
sVpath
p86
V/
sVhttponly
p87
I01
sVsecure
p88
I01
sa(dp89
Vdomain
p90
V.quora.com
p91
sVname
p92
Vm-b
p93
sVexpires
p94
V\u5468\u4e94, 09 11\u6708 2035 23:59:00 GMT
p95
sVvalue
p96
V"YMmAJ39S7o5xNHVXDsvIxA\u005c075\u005c075"
p97
sVexpiry
p98
I2078265540
sVpath
p99
V/
sVhttponly
p100
I01
sVsecure
p101
I01
sa.